; Function Attrs: mustprogress nounwind uwtable
define internal void @_ZN12_GLOBAL__N_115MCMachOStreamer17emitAssemblerFlagEN4llvm15MCAssemblerFlagE(ptr noundef nonnull readonly align 8 captures(none) dereferenceable(456) %0, i32 noundef %1) unnamed_addr #0 align 2 {
  %3 = getelementptr inbounds nuw i8, ptr %0, i64 288
  %4 = load ptr, ptr %3, align 8
  %5 = getelementptr inbounds nuw i8, ptr %4, i64 8
  %6 = load ptr, ptr %5, align 8
  %7 = load ptr, ptr %6, align 8
  %8 = getelementptr inbounds nuw i8, ptr %7, i64 208
  %9 = load ptr, ptr %8, align 8
  tail call void %9(ptr noundef nonnull align 8 dereferenceable(16) %6, i32 noundef %1) #17
  %cond = icmp eq i32 %1, 1
  br i1 %cond, label %10, label %13

10:                                               ; preds = %2
  %.val = load ptr, ptr %3, align 8
  %11 = getelementptr i8, ptr %.val, i64 24
  %.val.val = load ptr, ptr %11, align 8
  %12 = getelementptr inbounds nuw i8, ptr %.val.val, i64 81
  store i8 1, ptr %12, align 1
  br label %13

13:                                               ; preds = %2, %10
  ret void
}